target datalayout = "e-m:e-p270:32:32-p271:32:32-p272:64:64-i64:64-i128:128-f80:128-n8:16:32:64-S128"
target triple = "x86_64-unknown-linux-gnu"

%"class.folly::Range" = type { ptr, ptr }
%"class.facebook::velox::DeltaCpuWallTimer" = type <{ i64, %"class.std::chrono::time_point", %class.anon, [7 x i8] }>
%"class.std::chrono::time_point" = type { %"class.std::chrono::duration" }
%"class.std::chrono::duration" = type { i64 }
%class.anon = type { i8 }
%"class.std::__cxx11::basic_string" = type { %"struct.std::__cxx11::basic_string<char>::_Alloc_hider", i64, %union.anon }
%"struct.std::__cxx11::basic_string<char>::_Alloc_hider" = type { ptr }
%union.anon = type { i64, [8 x i8] }
%"class.std::allocator" = type { i8 }
%"struct.facebook::velox::RuntimeCounter" = type <{ i64, i32, [4 x i8] }>

@.str = private unnamed_addr constant [18 x i8] c"loadedToValueHook\00", align 1
@.str.6 = private unnamed_addr constant [50 x i8] c"basic_string: construction from null is not valid\00", align 1

; Function Attrs: mustprogress nounwind uwtable
define linkonce_odr noundef i64 @_ZNSt11char_traitsIcE6lengthEPKc(ptr noundef %__s) #2 comdat align 2 {
entry:
  %__s.addr = alloca ptr, align 8
  store ptr %__s, ptr %__s.addr, align 8
  %0 = load ptr, ptr %__s.addr, align 8
  %call = call i64 @strlen(ptr noundef %0) #20
  ret i64 %call
}

; Function Attrs: mustprogress nounwind uwtable
define linkonce_odr void @_ZNSt7__cxx1112basic_stringIcSt11char_traitsIcESaIcEE12_Alloc_hiderD2Ev(ptr noundef nonnull align 8 dereferenceable(8) %this) unnamed_addr #2 comdat align 2 {
entry:
  %this.addr = alloca ptr, align 8
  store ptr %this, ptr %this.addr, align 8
  %this1 = load ptr, ptr %this.addr, align 8
  call void @_ZNSaIcED2Ev(ptr noundef nonnull align 1 dereferenceable(1) %this1) #20
  ret void
}

; Function Attrs: mustprogress nounwind uwtable
define linkonce_odr void @_ZN8facebook5velox14RuntimeCounterC2ElNS1_4UnitE(ptr noundef nonnull align 8 dereferenceable(12) %this, i64 noundef %_value, i32 noundef %_unit) unnamed_addr #2 comdat align 2 {
entry:
  %this.addr = alloca ptr, align 8
  %_value.addr = alloca i64, align 8
  %_unit.addr = alloca i32, align 4
  store ptr %this, ptr %this.addr, align 8
  store i64 %_value, ptr %_value.addr, align 8
  store i32 %_unit, ptr %_unit.addr, align 4
  %this1 = load ptr, ptr %this.addr, align 8
  %value = getelementptr inbounds %"struct.facebook::velox::RuntimeCounter", ptr %this1, i32 0, i32 0
  %0 = load i64, ptr %_value.addr, align 8
  store i64 %0, ptr %value, align 8
  %unit = getelementptr inbounds %"struct.facebook::velox::RuntimeCounter", ptr %this1, i32 0, i32 1
  %1 = load i32, ptr %_unit.addr, align 4
  store i32 %1, ptr %unit, align 8
  ret void
}

; Function Attrs: mustprogress nounwind uwtable
define linkonce_odr noundef i64 @_ZNK5folly5RangeIPKiE4sizeEv(ptr noundef nonnull align 8 dereferenceable(16) %this) #2 comdat align 2 {
entry:
  %this.addr = alloca ptr, align 8
  store ptr %this, ptr %this.addr, align 8
  %this1 = load ptr, ptr %this.addr, align 8
  %e_ = getelementptr inbounds %"class.folly::Range", ptr %this1, i32 0, i32 1
  %0 = load ptr, ptr %e_, align 8
  %b_ = getelementptr inbounds %"class.folly::Range", ptr %this1, i32 0, i32 0
  %1 = load ptr, ptr %b_, align 8
  %sub.ptr.lhs.cast = ptrtoint ptr %0 to i64
  %sub.ptr.rhs.cast = ptrtoint ptr %1 to i64
  %sub.ptr.sub = sub i64 %sub.ptr.lhs.cast, %sub.ptr.rhs.cast
  %sub.ptr.div = sdiv exact i64 %sub.ptr.sub, 4
  ret i64 %sub.ptr.div
}

; Function Attrs: mustprogress uwtable
define linkonce_odr void @_ZNSt7__cxx1112basic_stringIcSt11char_traitsIcESaIcEEC2IS3_EEPKcRKS3_(ptr noundef nonnull align 8 dereferenceable(32) %this, ptr noundef %__s, ptr noundef nonnull align 1 dereferenceable(1) %__a) unnamed_addr #0 comdat align 2 personality ptr @__gxx_personality_v0 {
entry:
  %this.addr = alloca ptr, align 8
  %__s.addr = alloca ptr, align 8
  %__a.addr = alloca ptr, align 8
  %exn.slot = alloca ptr, align 8
  %ehselector.slot = alloca i32, align 4
  %__end = alloca ptr, align 8
  store ptr %this, ptr %this.addr, align 8
  store ptr %__s, ptr %__s.addr, align 8
  store ptr %__a, ptr %__a.addr, align 8
  %this1 = load ptr, ptr %this.addr, align 8
  %_M_dataplus = getelementptr inbounds %"class.std::__cxx11::basic_string", ptr %this1, i32 0, i32 0
  %call = call noundef ptr @_ZNSt7__cxx1112basic_stringIcSt11char_traitsIcESaIcEE13_M_local_dataEv(ptr noundef nonnull align 8 dereferenceable(32) %this1)
  %0 = load ptr, ptr %__a.addr, align 8
  call void @_ZNSt7__cxx1112basic_stringIcSt11char_traitsIcESaIcEE12_Alloc_hiderC1EPcRKS3_(ptr noundef nonnull align 8 dereferenceable(8) %_M_dataplus, ptr noundef %call, ptr noundef nonnull align 1 dereferenceable(1) %0)
  %1 = load ptr, ptr %__s.addr, align 8
  %cmp = icmp eq ptr %1, null
  br i1 %cmp, label %if.then, label %if.end

if.then:                                          ; preds = %entry
  invoke void @_ZSt19__throw_logic_errorPKc(ptr noundef @.str.6) #22
          to label %invoke.cont unwind label %lpad

invoke.cont:                                      ; preds = %if.then
  unreachable

lpad:                                             ; preds = %invoke.cont2, %if.end, %if.then
  %2 = landingpad { ptr, i32 }
          cleanup
  %3 = extractvalue { ptr, i32 } %2, 0
  store ptr %3, ptr %exn.slot, align 8
  %4 = extractvalue { ptr, i32 } %2, 1
  store i32 %4, ptr %ehselector.slot, align 4
  call void @_ZNSt7__cxx1112basic_stringIcSt11char_traitsIcESaIcEE12_Alloc_hiderD2Ev(ptr noundef nonnull align 8 dereferenceable(8) %_M_dataplus) #20
  br label %eh.resume

if.end:                                           ; preds = %entry
  %5 = load ptr, ptr %__s.addr, align 8
  %6 = load ptr, ptr %__s.addr, align 8
  %call3 = invoke noundef i64 @_ZNSt11char_traitsIcE6lengthEPKc(ptr noundef %6)
          to label %invoke.cont2 unwind label %lpad

invoke.cont2:                                     ; preds = %if.end
  %add.ptr = getelementptr inbounds i8, ptr %5, i64 %call3
  store ptr %add.ptr, ptr %__end, align 8
  %7 = load ptr, ptr %__s.addr, align 8
  %8 = load ptr, ptr %__end, align 8
  invoke void @_ZNSt7__cxx1112basic_stringIcSt11char_traitsIcESaIcEE12_M_constructIPKcEEvT_S8_St20forward_iterator_tag(ptr noundef nonnull align 8 dereferenceable(32) %this1, ptr noundef %7, ptr noundef %8)
          to label %invoke.cont4 unwind label %lpad

invoke.cont4:                                     ; preds = %invoke.cont2
  ret void

eh.resume:                                        ; preds = %lpad
  %exn = load ptr, ptr %exn.slot, align 8
  %sel = load i32, ptr %ehselector.slot, align 4
  %lpad.val = insertvalue { ptr, i32 } poison, ptr %exn, 0
  %lpad.val5 = insertvalue { ptr, i32 } %lpad.val, i32 %sel, 1
  resume { ptr, i32 } %lpad.val5
}

; Function Attrs: mustprogress uwtable
define internal void @"_ZN8facebook5velox17DeltaCpuWallTimerIZNS0_12VectorLoader4loadEN5folly5RangeIPKiEEPNS0_9ValueHookEiPSt10shared_ptrINS0_10BaseVectorEEE3$_0EC2EOSE_"(ptr noundef nonnull align 8 dereferenceable(17) %this, ptr noundef nonnull align 1 dereferenceable(1) %func) unnamed_addr #0 align 2 {
entry:
  %this.addr = alloca ptr, align 8
  %func.addr = alloca ptr, align 8
  store ptr %this, ptr %this.addr, align 8
  store ptr %func, ptr %func.addr, align 8
  %this1 = load ptr, ptr %this.addr, align 8
  %cpuTimeStart_ = getelementptr inbounds %"class.facebook::velox::DeltaCpuWallTimer", ptr %this1, i32 0, i32 0
  %call = call noundef i64 @_ZN8facebook5velox7process14threadCpuNanosEv()
  store i64 %call, ptr %cpuTimeStart_, align 8
  %wallTimeStart_ = getelementptr inbounds %"class.facebook::velox::DeltaCpuWallTimer", ptr %this1, i32 0, i32 1
  %call2 = call i64 @_ZNSt6chrono3_V212steady_clock3nowEv() #20
  %coerce.dive = getelementptr inbounds %"class.std::chrono::time_point", ptr %wallTimeStart_, i32 0, i32 0
  %coerce.dive3 = getelementptr inbounds %"class.std::chrono::duration", ptr %coerce.dive, i32 0, i32 0
  store i64 %call2, ptr %coerce.dive3, align 8
  ret void
}

; Function Attrs: mustprogress uwtable
define void @_ZN8facebook5velox12VectorLoader4loadEN5folly5RangeIPKiEEPNS0_9ValueHookEiPSt10shared_ptrINS0_10BaseVectorEE(ptr noundef nonnull align 8 dereferenceable(8) %this, ptr %rows.coerce0, ptr %rows.coerce1, ptr noundef %hook, i32 noundef %resultSize, ptr noundef %result) #0 align 2 personality ptr @__gxx_personality_v0 {
entry:
  %rows = alloca %"class.folly::Range", align 8
  %this.addr = alloca ptr, align 8
  %hook.addr = alloca ptr, align 8
  %resultSize.addr = alloca i32, align 4
  %result.addr = alloca ptr, align 8
  %timer = alloca %"class.facebook::velox::DeltaCpuWallTimer", align 8
  %ref.tmp = alloca %class.anon, align 1
  %agg.tmp = alloca %"class.folly::Range", align 8
  %exn.slot = alloca ptr, align 8
  %ehselector.slot = alloca i32, align 4
  %ref.tmp2 = alloca %"class.std::__cxx11::basic_string", align 8
  %ref.tmp3 = alloca %"class.std::allocator", align 1
  %ref.tmp6 = alloca %"struct.facebook::velox::RuntimeCounter", align 8
  %0 = getelementptr inbounds { ptr, ptr }, ptr %rows, i32 0, i32 0
  store ptr %rows.coerce0, ptr %0, align 8
  %1 = getelementptr inbounds { ptr, ptr }, ptr %rows, i32 0, i32 1
  store ptr %rows.coerce1, ptr %1, align 8
  store ptr %this, ptr %this.addr, align 8
  store ptr %hook, ptr %hook.addr, align 8
  store i32 %resultSize, ptr %resultSize.addr, align 4
  store ptr %result, ptr %result.addr, align 8
  %this1 = load ptr, ptr %this.addr, align 8
  call void @"_ZN8facebook5velox17DeltaCpuWallTimerIZNS0_12VectorLoader4loadEN5folly5RangeIPKiEEPNS0_9ValueHookEiPSt10shared_ptrINS0_10BaseVectorEEE3$_0EC2EOSE_"(ptr noundef nonnull align 8 dereferenceable(17) %timer, ptr noundef nonnull align 1 dereferenceable(1) %ref.tmp)
  call void @llvm.memcpy.p0.p0.i64(ptr align 8 %agg.tmp, ptr align 8 %rows, i64 16, i1 false)
  %2 = load ptr, ptr %hook.addr, align 8
  %3 = load i32, ptr %resultSize.addr, align 4
  %4 = load ptr, ptr %result.addr, align 8
  %5 = getelementptr inbounds { ptr, ptr }, ptr %agg.tmp, i32 0, i32 0
  %6 = load ptr, ptr %5, align 8
  %7 = getelementptr inbounds { ptr, ptr }, ptr %agg.tmp, i32 0, i32 1
  %8 = load ptr, ptr %7, align 8
  %vtable = load ptr, ptr %this1, align 8
  %vfn = getelementptr inbounds ptr, ptr %vtable, i64 2
  %9 = load ptr, ptr %vfn, align 8
  invoke void %9(ptr noundef nonnull align 8 dereferenceable(8) %this1, ptr %6, ptr %8, ptr noundef %2, i32 noundef %3, ptr noundef %4)
          to label %invoke.cont unwind label %lpad

invoke.cont:                                      ; preds = %entry
  call void @"_ZN8facebook5velox17DeltaCpuWallTimerIZNS0_12VectorLoader4loadEN5folly5RangeIPKiEEPNS0_9ValueHookEiPSt10shared_ptrINS0_10BaseVectorEEE3$_0ED2Ev"(ptr noundef nonnull align 8 dereferenceable(17) %timer) #20
  %10 = load ptr, ptr %hook.addr, align 8
  %tobool = icmp ne ptr %10, null
  br i1 %tobool, label %if.then, label %if.end

if.then:                                          ; preds = %invoke.cont
  call void @_ZNSaIcEC1Ev(ptr noundef nonnull align 1 dereferenceable(1) %ref.tmp3) #20
  invoke void @_ZNSt7__cxx1112basic_stringIcSt11char_traitsIcESaIcEEC2IS3_EEPKcRKS3_(ptr noundef nonnull align 8 dereferenceable(32) %ref.tmp2, ptr noundef @.str, ptr noundef nonnull align 1 dereferenceable(1) %ref.tmp3)
          to label %invoke.cont5 unwind label %lpad4

invoke.cont5:                                     ; preds = %if.then
  %call = invoke noundef i64 @_ZNK5folly5RangeIPKiE4sizeEv(ptr noundef nonnull align 8 dereferenceable(16) %rows)
          to label %invoke.cont8 unwind label %lpad7

invoke.cont8:                                     ; preds = %invoke.cont5
  invoke void @_ZN8facebook5velox14RuntimeCounterC2ElNS1_4UnitE(ptr noundef nonnull align 8 dereferenceable(12) %ref.tmp6, i64 noundef %call, i32 noundef 0)
          to label %invoke.cont9 unwind label %lpad7

invoke.cont9:                                     ; preds = %invoke.cont8
  invoke void @_ZN8facebook5velox25addThreadLocalRuntimeStatERKNSt7__cxx1112basic_stringIcSt11char_traitsIcESaIcEEERKNS0_14RuntimeCounterE(ptr noundef nonnull align 8 dereferenceable(32) %ref.tmp2, ptr noundef nonnull align 8 dereferenceable(12) %ref.tmp6)
          to label %invoke.cont10 unwind label %lpad7

invoke.cont10:                                    ; preds = %invoke.cont9
  call void @_ZNSt7__cxx1112basic_stringIcSt11char_traitsIcESaIcEED1Ev(ptr noundef nonnull align 8 dereferenceable(32) %ref.tmp2) #20
  call void @_ZNSaIcED1Ev(ptr noundef nonnull align 1 dereferenceable(1) %ref.tmp3) #20
  br label %if.end

lpad:                                             ; preds = %entry
  %11 = landingpad { ptr, i32 }
          cleanup
  %12 = extractvalue { ptr, i32 } %11, 0
  store ptr %12, ptr %exn.slot, align 8
  %13 = extractvalue { ptr, i32 } %11, 1
  store i32 %13, ptr %ehselector.slot, align 4
  call void @"_ZN8facebook5velox17DeltaCpuWallTimerIZNS0_12VectorLoader4loadEN5folly5RangeIPKiEEPNS0_9ValueHookEiPSt10shared_ptrINS0_10BaseVectorEEE3$_0ED2Ev"(ptr noundef nonnull align 8 dereferenceable(17) %timer) #20
  br label %eh.resume

lpad4:                                            ; preds = %if.then
  %14 = landingpad { ptr, i32 }
          cleanup
  %15 = extractvalue { ptr, i32 } %14, 0
  store ptr %15, ptr %exn.slot, align 8
  %16 = extractvalue { ptr, i32 } %14, 1
  store i32 %16, ptr %ehselector.slot, align 4
  br label %ehcleanup

lpad7:                                            ; preds = %invoke.cont9, %invoke.cont8, %invoke.cont5
  %17 = landingpad { ptr, i32 }
          cleanup
  %18 = extractvalue { ptr, i32 } %17, 0
  store ptr %18, ptr %exn.slot, align 8
  %19 = extractvalue { ptr, i32 } %17, 1
  store i32 %19, ptr %ehselector.slot, align 4
  call void @_ZNSt7__cxx1112basic_stringIcSt11char_traitsIcESaIcEED1Ev(ptr noundef nonnull align 8 dereferenceable(32) %ref.tmp2) #20
  br label %ehcleanup

ehcleanup:                                        ; preds = %lpad7, %lpad4
  call void @_ZNSaIcED1Ev(ptr noundef nonnull align 1 dereferenceable(1) %ref.tmp3) #20
  br label %eh.resume

if.end:                                           ; preds = %invoke.cont10, %invoke.cont
  ret void

eh.resume:                                        ; preds = %ehcleanup, %lpad
  %exn = load ptr, ptr %exn.slot, align 8
  %sel = load i32, ptr %ehselector.slot, align 4
  %lpad.val = insertvalue { ptr, i32 } poison, ptr %exn, 0
  %lpad.val11 = insertvalue { ptr, i32 } %lpad.val, i32 %sel, 1
  resume { ptr, i32 } %lpad.val11
}